; Function Attrs: mustprogress nofree norecurse nosync nounwind willreturn memory(none) uwtable
define range(i32 0, 2) i32 @cmdutils_isalnum(i8 noundef signext %0) local_unnamed_addr #4 {
  %2 = add i8 %0, -48
  %or.cond = icmp ult i8 %2, 10
  %3 = and i8 %0, -33
  %4 = add i8 %3, -65
  %5 = icmp ult i8 %4, 26
  %narrow = or i1 %or.cond, %5
  %6 = zext i1 %narrow to i32
  ret i32 %6
}